target datalayout = "e-m:e-p270:32:32-p271:32:32-p272:64:64-i64:64-i128:128-f80:128-n8:16:32:64-S128"
target triple = "x86_64-pc-linux-gnu"

%"class.ncnn::YoloDetectionOutput" = type { %"class.ncnn::Layer", i32, i32, float, float, %"class.ncnn::Mat", ptr }
%"class.ncnn::Layer" = type { ptr, i8, i8, i8, i8, i8, i8, i8, i8, i8, i8, i8, i8, i8, i8, i8, i8, i8, i8, i8, i8, i32, ptr, i32, %"class.std::__cxx11::basic_string", %"class.std::__cxx11::basic_string", %"class.std::vector", %"class.std::vector", %"class.std::vector.3", %"class.std::vector.3" }
%"class.std::__cxx11::basic_string" = type { %"struct.std::__cxx11::basic_string<char>::_Alloc_hider", i64, %union.anon }
%"struct.std::__cxx11::basic_string<char>::_Alloc_hider" = type { ptr }
%union.anon = type { i64, [8 x i8] }
%"class.std::vector" = type { %"struct.std::_Vector_base" }
%"struct.std::_Vector_base" = type { %"struct.std::_Vector_base<int, std::allocator<int>>::_Vector_impl" }
%"struct.std::_Vector_base<int, std::allocator<int>>::_Vector_impl" = type { %"struct.std::_Vector_base<int, std::allocator<int>>::_Vector_impl_data" }
%"struct.std::_Vector_base<int, std::allocator<int>>::_Vector_impl_data" = type { ptr, ptr, ptr }
%"class.std::vector.3" = type { %"struct.std::_Vector_base.4" }
%"struct.std::_Vector_base.4" = type { %"struct.std::_Vector_base<ncnn::Mat, std::allocator<ncnn::Mat>>::_Vector_impl" }
%"struct.std::_Vector_base<ncnn::Mat, std::allocator<ncnn::Mat>>::_Vector_impl" = type { %"struct.std::_Vector_base<ncnn::Mat, std::allocator<ncnn::Mat>>::_Vector_impl_data" }
%"struct.std::_Vector_base<ncnn::Mat, std::allocator<ncnn::Mat>>::_Vector_impl_data" = type { ptr, ptr, ptr }
%"class.ncnn::Mat" = type { ptr, ptr, i64, i32, ptr, i32, i32, i32, i32, i32, i64 }

; Function Attrs: mustprogress uwtable
define hidden noundef i32 @_ZN4ncnn19YoloDetectionOutput16destroy_pipelineERKNS_6OptionE(ptr noundef nonnull align 8 dereferenceable(304) %0, ptr noundef nonnull align 8 dereferenceable(64) %1) unnamed_addr #1 align 2 {
  %3 = alloca ptr, align 8
  %4 = alloca ptr, align 8
  store ptr %0, ptr %3, align 8, !tbaa !4
  store ptr %1, ptr %4, align 8, !tbaa !39
  %5 = load ptr, ptr %3, align 8
  %6 = getelementptr inbounds nuw %"class.ncnn::YoloDetectionOutput", ptr %5, i32 0, i32 6
  %7 = load ptr, ptr %6, align 8, !tbaa !41
  %8 = icmp ne ptr %7, null
  br i1 %8, label %9, label %26

9:                                                ; preds = %2
  %10 = getelementptr inbounds nuw %"class.ncnn::YoloDetectionOutput", ptr %5, i32 0, i32 6
  %11 = load ptr, ptr %10, align 8, !tbaa !41
  %12 = load ptr, ptr %4, align 8, !tbaa !39
  %13 = load ptr, ptr %11, align 8, !tbaa !9
  %14 = getelementptr inbounds ptr, ptr %13, i64 5
  %15 = load ptr, ptr %14, align 8
  %16 = call noundef i32 %15(ptr noundef nonnull align 8 dereferenceable(208) %11, ptr noundef nonnull align 8 dereferenceable(64) %12)
  %17 = getelementptr inbounds nuw %"class.ncnn::YoloDetectionOutput", ptr %5, i32 0, i32 6
  %18 = load ptr, ptr %17, align 8, !tbaa !41
  %19 = icmp eq ptr %18, null
  br i1 %19, label %24, label %20

20:                                               ; preds = %9
  %21 = load ptr, ptr %18, align 8, !tbaa !9
  %22 = getelementptr inbounds ptr, ptr %21, i64 1
  %23 = load ptr, ptr %22, align 8
  call void %23(ptr noundef nonnull align 8 dereferenceable(208) %18) #10
  br label %24

24:                                               ; preds = %20, %9
  %25 = getelementptr inbounds nuw %"class.ncnn::YoloDetectionOutput", ptr %5, i32 0, i32 6
  store ptr null, ptr %25, align 8, !tbaa !41
  br label %26

26:                                               ; preds = %24, %2
  ret i32 0
}